
build/output.elf:     file format elf32-littlearm


Disassembly of section .init:

00008000 <_start>:
    8000:	ea000446 	b	9120 <main>

Disassembly of section .text:

00009120 <main>:
    9120:	e3a0d902 	mov	sp, #32768	; 0x8000
    9124:	eb00012a 	bl	95d4 <EnableJTAG>
    9128:	eb00014c 	bl	9660 <InitUART>
    912c:	e59f041c 	ldr	r0, [pc, #1052]	; 9550 <printNewline+0x1c>
    9130:	e3a01030 	mov	r1, #48	; 0x30
    9134:	eb000187 	bl	9758 <WriteStringUART>
    9138:	e320f000 	nop	{0}

0000913c <initSNES>:
    913c:	e3a00001 	mov	r0, #1
    9140:	eb00005f 	bl	92c4 <setCLOCKFunction>
    9144:	e3a00001 	mov	r0, #1
    9148:	eb000044 	bl	9260 <setLATCHFunction>
    914c:	e3a00000 	mov	r0, #0
    9150:	eb000032 	bl	9220 <setDATAFunction>

00009154 <startSamplingSNESButtons>:
    9154:	e3a00001 	mov	r0, #1
    9158:	eb000062 	bl	92e8 <writeCLOCK>
    915c:	e3a00001 	mov	r0, #1
    9160:	eb000047 	bl	9284 <writeLATCH>
    9164:	e3a00001 	mov	r0, #1
    9168:	e1a00a00 	lsl	r0, r0, #20
    916c:	eb000022 	bl	91fc <killProgramEnd>
    9170:	e3a00000 	mov	r0, #0
    9174:	eb000042 	bl	9284 <writeLATCH>
    9178:	e3a08000 	mov	r8, #0
    917c:	e3a07000 	mov	r7, #0

00009180 <pulseLoop>:
    9180:	e3a00006 	mov	r0, #6
    9184:	eb00001c 	bl	91fc <killProgramEnd>
    9188:	e3a00000 	mov	r0, #0
    918c:	eb000055 	bl	92e8 <writeCLOCK>
    9190:	e3a00006 	mov	r0, #6
    9194:	eb000018 	bl	91fc <killProgramEnd>
    9198:	eb000027 	bl	923c <readDATA>
    919c:	e1a00710 	lsl	r0, r0, r7
    91a0:	e1888000 	orr	r8, r8, r0
    91a4:	e3a00001 	mov	r0, #1
    91a8:	eb00004e 	bl	92e8 <writeCLOCK>
    91ac:	e2877001 	add	r7, r7, #1
    91b0:	e3570010 	cmp	r7, #16
    91b4:	bafffff1 	blt	9180 <pulseLoop>

000091b8 <pulseLoopEnd>:
    91b8:	e1a00008 	mov	r0, r8
    91bc:	eb000059 	bl	9328 <areAnySNESButtonsPressed>
    91c0:	e3310001 	teq	r1, #1
    91c4:	0b000065 	bleq	9360 <printSNESButtonPressedMessage>
    91c8:	1bffffe1 	blne	9154 <startSamplingSNESButtons>
    91cc:	e3a01003 	mov	r1, #3
    91d0:	eb00005a 	bl	9340 <isSNESButtonPressedForIndex>
    91d4:	e3310001 	teq	r1, #1
    91d8:	0a000001 	beq	91e4 <killProgram>
    91dc:	1affffdc 	bne	9154 <startSamplingSNESButtons>

000091e0 <mainEnd>:
    91e0:	eaffffff 	b	91e4 <killProgram>

000091e4 <killProgram>:
    91e4:	e59f0368 	ldr	r0, [pc, #872]	; 9554 <printNewline+0x20>
    91e8:	e3a01014 	mov	r1, #20
    91ec:	eb000159 	bl	9758 <WriteStringUART>
    91f0:	e3a00000 	mov	r0, #0
    91f4:	e3a07001 	mov	r7, #1
    91f8:	ef000000 	svc	0x00000000

000091fc <killProgramEnd>:
    91fc:	e59f2354 	ldr	r2, [pc, #852]	; 9558 <printNewline+0x24>
    9200:	e5922000 	ldr	r2, [r2]
    9204:	e0822000 	add	r2, r2, r0

00009208 <timerTick_>:
    9208:	e59f1348 	ldr	r1, [pc, #840]	; 9558 <printNewline+0x24>
    920c:	e5911000 	ldr	r1, [r1]
    9210:	e1510002 	cmp	r1, r2
    9214:	aa000000 	bge	921c <timerComplete_>
    9218:	eafffffa 	b	9208 <timerTick_>

0000921c <timerComplete_>:
    921c:	e1a0f00e 	mov	pc, lr

00009220 <setDATAFunction>:
    9220:	e59f1334 	ldr	r1, [pc, #820]	; 955c <printNewline+0x28>
    9224:	e5912004 	ldr	r2, [r1, #4]
    9228:	e3a03007 	mov	r3, #7
    922c:	e1c22003 	bic	r2, r2, r3
    9230:	e1822000 	orr	r2, r2, r0
    9234:	e5812004 	str	r2, [r1, #4]
    9238:	e1a0f00e 	mov	pc, lr

0000923c <readDATA>:
    923c:	e59f1318 	ldr	r1, [pc, #792]	; 955c <printNewline+0x28>
    9240:	e5912034 	ldr	r2, [r1, #52]	; 0x34
    9244:	e3a03001 	mov	r3, #1
    9248:	e1a03503 	lsl	r3, r3, #10
    924c:	e0022003 	and	r2, r2, r3
    9250:	e3320000 	teq	r2, #0
    9254:	03a00000 	moveq	r0, #0
    9258:	13a00001 	movne	r0, #1
    925c:	e1a0f00e 	mov	pc, lr

00009260 <setLATCHFunction>:
    9260:	e59f12f4 	ldr	r1, [pc, #756]	; 955c <printNewline+0x28>
    9264:	e5912000 	ldr	r2, [r1]
    9268:	e3a03007 	mov	r3, #7
    926c:	e1a03d83 	lsl	r3, r3, #27
    9270:	e1c22003 	bic	r2, r2, r3
    9274:	e1a00d80 	lsl	r0, r0, #27
    9278:	e1822000 	orr	r2, r2, r0
    927c:	e5812000 	str	r2, [r1]
    9280:	e1a0f00e 	mov	pc, lr

00009284 <writeLATCH>:
    9284:	e59f12d0 	ldr	r1, [pc, #720]	; 955c <printNewline+0x28>
    9288:	e3a02001 	mov	r2, #1
    928c:	e1a02482 	lsl	r2, r2, #9
    9290:	e3300000 	teq	r0, #0
    9294:	05812028 	streq	r2, [r1, #40]	; 0x28
    9298:	1581201c 	strne	r2, [r1, #28]
    929c:	e1a0f00e 	mov	pc, lr

000092a0 <readLATCH>:
    92a0:	e59f12b4 	ldr	r1, [pc, #692]	; 955c <printNewline+0x28>
    92a4:	e5912034 	ldr	r2, [r1, #52]	; 0x34
    92a8:	e3a03001 	mov	r3, #1
    92ac:	e1a03483 	lsl	r3, r3, #9
    92b0:	e0022003 	and	r2, r2, r3
    92b4:	e3320000 	teq	r2, #0
    92b8:	03a00000 	moveq	r0, #0
    92bc:	13a00001 	movne	r0, #1
    92c0:	e1a0f00e 	mov	pc, lr

000092c4 <setCLOCKFunction>:
    92c4:	e59f1290 	ldr	r1, [pc, #656]	; 955c <printNewline+0x28>
    92c8:	e5912004 	ldr	r2, [r1, #4]
    92cc:	e3a03007 	mov	r3, #7
    92d0:	e1a03183 	lsl	r3, r3, #3
    92d4:	e1c22003 	bic	r2, r2, r3
    92d8:	e1a00180 	lsl	r0, r0, #3
    92dc:	e1822000 	orr	r2, r2, r0
    92e0:	e5812004 	str	r2, [r1, #4]
    92e4:	e1a0f00e 	mov	pc, lr

000092e8 <writeCLOCK>:
    92e8:	e59f126c 	ldr	r1, [pc, #620]	; 955c <printNewline+0x28>
    92ec:	e3a02001 	mov	r2, #1
    92f0:	e1a02582 	lsl	r2, r2, #11
    92f4:	e3300000 	teq	r0, #0
    92f8:	05812028 	streq	r2, [r1, #40]	; 0x28
    92fc:	1581201c 	strne	r2, [r1, #28]
    9300:	e1a0f00e 	mov	pc, lr

00009304 <readCLOCK>:
    9304:	e59f1250 	ldr	r1, [pc, #592]	; 955c <printNewline+0x28>
    9308:	e5912034 	ldr	r2, [r1, #52]	; 0x34
    930c:	e3a03001 	mov	r3, #1
    9310:	e1a03583 	lsl	r3, r3, #11
    9314:	e0022003 	and	r2, r2, r3
    9318:	e3320000 	teq	r2, #0
    931c:	03a00000 	moveq	r0, #0
    9320:	13a00001 	movne	r0, #1
    9324:	e1a0f00e 	mov	pc, lr

00009328 <areAnySNESButtonsPressed>:
    9328:	e59f1230 	ldr	r1, [pc, #560]	; 9560 <printNewline+0x2c>
    932c:	e0411000 	sub	r1, r1, r0
    9330:	e3310000 	teq	r1, #0
    9334:	03a01000 	moveq	r1, #0
    9338:	13a01001 	movne	r1, #1
    933c:	e1a0f00e 	mov	pc, lr

00009340 <isSNESButtonPressedForIndex>:
    9340:	e52d0004 	push	{r0}		; (str r0, [sp, #-4]!)
    9344:	e1a00130 	lsr	r0, r0, r1
    9348:	e2000001 	and	r0, r0, #1
    934c:	e3300000 	teq	r0, #0
    9350:	03a01001 	moveq	r1, #1
    9354:	13a01000 	movne	r1, #0
    9358:	e49d0004 	pop	{r0}		; (ldr r0, [sp], #4)
    935c:	e1a0f00e 	mov	pc, lr

00009360 <printSNESButtonPressedMessage>:
    9360:	e52de004 	push	{lr}		; (str lr, [sp, #-4]!)
    9364:	e52d0004 	push	{r0}		; (str r0, [sp, #-4]!)
    9368:	e59f01f4 	ldr	r0, [pc, #500]	; 9564 <printNewline+0x30>
    936c:	e59f11f4 	ldr	r1, [pc, #500]	; 9568 <printNewline+0x34>
    9370:	e0411000 	sub	r1, r1, r0
    9374:	eb0000f7 	bl	9758 <WriteStringUART>
    9378:	e49d0004 	pop	{r0}		; (ldr r0, [sp], #4)
    937c:	e52d0004 	push	{r0}		; (str r0, [sp, #-4]!)
    9380:	e2000001 	and	r0, r0, #1
    9384:	e3300000 	teq	r0, #0
    9388:	059f01dc 	ldreq	r0, [pc, #476]	; 956c <printNewline+0x38>
    938c:	059f11dc 	ldreq	r1, [pc, #476]	; 9570 <printNewline+0x3c>
    9390:	00411000 	subeq	r1, r1, r0
    9394:	0b0000ef 	bleq	9758 <WriteStringUART>
    9398:	e49d0004 	pop	{r0}		; (ldr r0, [sp], #4)
    939c:	e52d0004 	push	{r0}		; (str r0, [sp, #-4]!)
    93a0:	e1a000a0 	lsr	r0, r0, #1
    93a4:	e2000001 	and	r0, r0, #1
    93a8:	e3300000 	teq	r0, #0
    93ac:	059f01c0 	ldreq	r0, [pc, #448]	; 9574 <printNewline+0x40>
    93b0:	059f11c0 	ldreq	r1, [pc, #448]	; 9578 <printNewline+0x44>
    93b4:	00411000 	subeq	r1, r1, r0
    93b8:	0b0000e6 	bleq	9758 <WriteStringUART>
    93bc:	e49d0004 	pop	{r0}		; (ldr r0, [sp], #4)
    93c0:	e52d0004 	push	{r0}		; (str r0, [sp, #-4]!)
    93c4:	e1a00120 	lsr	r0, r0, #2
    93c8:	e2000001 	and	r0, r0, #1
    93cc:	e3300000 	teq	r0, #0
    93d0:	059f01a4 	ldreq	r0, [pc, #420]	; 957c <printNewline+0x48>
    93d4:	059f11a4 	ldreq	r1, [pc, #420]	; 9580 <printNewline+0x4c>
    93d8:	00411000 	subeq	r1, r1, r0
    93dc:	0b0000dd 	bleq	9758 <WriteStringUART>
    93e0:	e49d0004 	pop	{r0}		; (ldr r0, [sp], #4)
    93e4:	e52d0004 	push	{r0}		; (str r0, [sp, #-4]!)
    93e8:	e1a001a0 	lsr	r0, r0, #3
    93ec:	e2000001 	and	r0, r0, #1
    93f0:	e3300000 	teq	r0, #0
    93f4:	059f0188 	ldreq	r0, [pc, #392]	; 9584 <printNewline+0x50>
    93f8:	059f1188 	ldreq	r1, [pc, #392]	; 9588 <printNewline+0x54>
    93fc:	00411000 	subeq	r1, r1, r0
    9400:	0b0000d4 	bleq	9758 <WriteStringUART>
    9404:	e49d0004 	pop	{r0}		; (ldr r0, [sp], #4)
    9408:	e52d0004 	push	{r0}		; (str r0, [sp, #-4]!)
    940c:	e1a00220 	lsr	r0, r0, #4
    9410:	e2000001 	and	r0, r0, #1
    9414:	e3300000 	teq	r0, #0
    9418:	059f016c 	ldreq	r0, [pc, #364]	; 958c <printNewline+0x58>
    941c:	059f116c 	ldreq	r1, [pc, #364]	; 9590 <printNewline+0x5c>
    9420:	00411000 	subeq	r1, r1, r0
    9424:	0b0000cb 	bleq	9758 <WriteStringUART>
    9428:	e49d0004 	pop	{r0}		; (ldr r0, [sp], #4)
    942c:	e52d0004 	push	{r0}		; (str r0, [sp, #-4]!)
    9430:	e1a002a0 	lsr	r0, r0, #5
    9434:	e2000001 	and	r0, r0, #1
    9438:	e3300000 	teq	r0, #0
    943c:	059f0150 	ldreq	r0, [pc, #336]	; 9594 <printNewline+0x60>
    9440:	059f1150 	ldreq	r1, [pc, #336]	; 9598 <printNewline+0x64>
    9444:	00411000 	subeq	r1, r1, r0
    9448:	0b0000c2 	bleq	9758 <WriteStringUART>
    944c:	e49d0004 	pop	{r0}		; (ldr r0, [sp], #4)
    9450:	e52d0004 	push	{r0}		; (str r0, [sp, #-4]!)
    9454:	e1a00320 	lsr	r0, r0, #6
    9458:	e2000001 	and	r0, r0, #1
    945c:	e3300000 	teq	r0, #0
    9460:	059f0134 	ldreq	r0, [pc, #308]	; 959c <printNewline+0x68>
    9464:	059f1134 	ldreq	r1, [pc, #308]	; 95a0 <printNewline+0x6c>
    9468:	00411000 	subeq	r1, r1, r0
    946c:	0b0000b9 	bleq	9758 <WriteStringUART>
    9470:	e49d0004 	pop	{r0}		; (ldr r0, [sp], #4)
    9474:	e52d0004 	push	{r0}		; (str r0, [sp, #-4]!)
    9478:	e1a003a0 	lsr	r0, r0, #7
    947c:	e2000001 	and	r0, r0, #1
    9480:	e3300000 	teq	r0, #0
    9484:	059f0118 	ldreq	r0, [pc, #280]	; 95a4 <printNewline+0x70>
    9488:	059f1118 	ldreq	r1, [pc, #280]	; 95a8 <printNewline+0x74>
    948c:	00411000 	subeq	r1, r1, r0
    9490:	0b0000b0 	bleq	9758 <WriteStringUART>
    9494:	e49d0004 	pop	{r0}		; (ldr r0, [sp], #4)
    9498:	e52d0004 	push	{r0}		; (str r0, [sp, #-4]!)
    949c:	e1a00420 	lsr	r0, r0, #8
    94a0:	e2000001 	and	r0, r0, #1
    94a4:	e3300000 	teq	r0, #0
    94a8:	059f00fc 	ldreq	r0, [pc, #252]	; 95ac <printNewline+0x78>
    94ac:	059f10fc 	ldreq	r1, [pc, #252]	; 95b0 <printNewline+0x7c>
    94b0:	00411000 	subeq	r1, r1, r0
    94b4:	0b0000a7 	bleq	9758 <WriteStringUART>
    94b8:	e49d0004 	pop	{r0}		; (ldr r0, [sp], #4)
    94bc:	e52d0004 	push	{r0}		; (str r0, [sp, #-4]!)
    94c0:	e1a004a0 	lsr	r0, r0, #9
    94c4:	e2000001 	and	r0, r0, #1
    94c8:	e3300000 	teq	r0, #0
    94cc:	059f00e0 	ldreq	r0, [pc, #224]	; 95b4 <printNewline+0x80>
    94d0:	059f10e0 	ldreq	r1, [pc, #224]	; 95b8 <printNewline+0x84>
    94d4:	00411000 	subeq	r1, r1, r0
    94d8:	0b00009e 	bleq	9758 <WriteStringUART>
    94dc:	e49d0004 	pop	{r0}		; (ldr r0, [sp], #4)
    94e0:	e52d0004 	push	{r0}		; (str r0, [sp, #-4]!)
    94e4:	e1a00520 	lsr	r0, r0, #10
    94e8:	e2000001 	and	r0, r0, #1
    94ec:	e3300000 	teq	r0, #0
    94f0:	059f00c4 	ldreq	r0, [pc, #196]	; 95bc <printNewline+0x88>
    94f4:	059f10c4 	ldreq	r1, [pc, #196]	; 95c0 <printNewline+0x8c>
    94f8:	00411000 	subeq	r1, r1, r0
    94fc:	0b000095 	bleq	9758 <WriteStringUART>
    9500:	e49d0004 	pop	{r0}		; (ldr r0, [sp], #4)
    9504:	e52d0004 	push	{r0}		; (str r0, [sp, #-4]!)
    9508:	e1a005a0 	lsr	r0, r0, #11
    950c:	e2000001 	and	r0, r0, #1
    9510:	e3300000 	teq	r0, #0
    9514:	059f00a8 	ldreq	r0, [pc, #168]	; 95c4 <printNewline+0x90>
    9518:	059f10a8 	ldreq	r1, [pc, #168]	; 95c8 <printNewline+0x94>
    951c:	00411000 	subeq	r1, r1, r0
    9520:	0b00008c 	bleq	9758 <WriteStringUART>
    9524:	eb000002 	bl	9534 <printNewline>
    9528:	e49d0004 	pop	{r0}		; (ldr r0, [sp], #4)
    952c:	e49de004 	pop	{lr}		; (ldr lr, [sp], #4)
    9530:	e1a0f00e 	mov	pc, lr

00009534 <printNewline>:
    9534:	e52de004 	push	{lr}		; (str lr, [sp, #-4]!)
    9538:	e59f008c 	ldr	r0, [pc, #140]	; 95cc <printNewline+0x98>
    953c:	e59f108c 	ldr	r1, [pc, #140]	; 95d0 <printNewline+0x9c>
    9540:	e0411000 	sub	r1, r1, r0
    9544:	eb000083 	bl	9758 <WriteStringUART>
    9548:	e49de004 	pop	{lr}		; (ldr lr, [sp], #4)
    954c:	e1a0f00e 	mov	pc, lr
    9550:	00009080 	.word	0x00009080
    9554:	000090b0 	.word	0x000090b0
    9558:	3f003004 	.word	0x3f003004
    955c:	3f200000 	.word	0x3f200000
    9560:	0000ffff 	.word	0x0000ffff
    9564:	000090de 	.word	0x000090de
    9568:	000090ef 	.word	0x000090ef
    956c:	000090ef 	.word	0x000090ef
    9570:	000090f1 	.word	0x000090f1
    9574:	000090f1 	.word	0x000090f1
    9578:	000090f3 	.word	0x000090f3
    957c:	000090f3 	.word	0x000090f3
    9580:	000090fa 	.word	0x000090fa
    9584:	000090fa 	.word	0x000090fa
    9588:	00009100 	.word	0x00009100
    958c:	00009100 	.word	0x00009100
    9590:	00009103 	.word	0x00009103
    9594:	00009103 	.word	0x00009103
    9598:	00009108 	.word	0x00009108
    959c:	00009108 	.word	0x00009108
    95a0:	0000910d 	.word	0x0000910d
    95a4:	0000910d 	.word	0x0000910d
    95a8:	00009113 	.word	0x00009113
    95ac:	00009113 	.word	0x00009113
    95b0:	00009115 	.word	0x00009115
    95b4:	00009115 	.word	0x00009115
    95b8:	00009117 	.word	0x00009117
    95bc:	00009117 	.word	0x00009117
    95c0:	00009119 	.word	0x00009119
    95c4:	00009119 	.word	0x00009119
    95c8:	0000911b 	.word	0x0000911b
    95cc:	0000911b 	.word	0x0000911b
    95d0:	0000911d 	.word	0x0000911d

000095d4 <EnableJTAG>:
    95d4:	e52de004 	push	{lr}		; (str lr, [sp, #-4]!)
    95d8:	e59f0064 	ldr	r0, [pc, #100]	; 9644 <dowaitloop+0xc>
    95dc:	e0211001 	eor	r1, r1, r1
    95e0:	e5801000 	str	r1, [r0]
    95e4:	eb000012 	bl	9634 <dowait>
    95e8:	e59f0058 	ldr	r0, [pc, #88]	; 9648 <dowaitloop+0x10>
    95ec:	e59f1058 	ldr	r1, [pc, #88]	; 964c <dowaitloop+0x14>
    95f0:	e5801000 	str	r1, [r0]
    95f4:	eb00000e 	bl	9634 <dowait>
    95f8:	e0211001 	eor	r1, r1, r1
    95fc:	e5801000 	str	r1, [r0]
    9600:	e59f0048 	ldr	r0, [pc, #72]	; 9650 <dowaitloop+0x18>
    9604:	e5901000 	ldr	r1, [r0]
    9608:	e3c11a07 	bic	r1, r1, #28672	; 0x7000
    960c:	e3811a02 	orr	r1, r1, #8192	; 0x2000
    9610:	e5801000 	str	r1, [r0]
    9614:	e59f0038 	ldr	r0, [pc, #56]	; 9654 <dowaitloop+0x1c>
    9618:	e5901000 	ldr	r1, [r0]
    961c:	e59f2034 	ldr	r2, [pc, #52]	; 9658 <dowaitloop+0x20>
    9620:	e1c11002 	bic	r1, r1, r2
    9624:	e59f2030 	ldr	r2, [pc, #48]	; 965c <dowaitloop+0x24>
    9628:	e1811002 	orr	r1, r1, r2
    962c:	e5801000 	str	r1, [r0]
    9630:	e49df004 	pop	{pc}		; (ldr pc, [sp], #4)

00009634 <dowait>:
    9634:	e3a02f4b 	mov	r2, #300	; 0x12c

00009638 <dowaitloop>:
    9638:	e2522001 	subs	r2, r2, #1
    963c:	1afffffd 	bne	9638 <dowaitloop>
    9640:	e12fff1e 	bx	lr
    9644:	3f200094 	.word	0x3f200094
    9648:	3f200098 	.word	0x3f200098
    964c:	0bc00010 	.word	0x0bc00010
    9650:	3f200000 	.word	0x3f200000
    9654:	3f200008 	.word	0x3f200008
    9658:	00e3ffc0 	.word	0x00e3ffc0
    965c:	0061b6c0 	.word	0x0061b6c0

00009660 <InitUART>:
    9660:	e52de004 	push	{lr}		; (str lr, [sp, #-4]!)
    9664:	e59f017c 	ldr	r0, [pc, #380]	; 97e8 <WaitForCycles+0x10>
    9668:	e3a01001 	mov	r1, #1
    966c:	e5801000 	str	r1, [r0]
    9670:	e59f0174 	ldr	r0, [pc, #372]	; 97ec <WaitForCycles+0x14>
    9674:	e0211001 	eor	r1, r1, r1
    9678:	e5801000 	str	r1, [r0]
    967c:	e59f016c 	ldr	r0, [pc, #364]	; 97f0 <WaitForCycles+0x18>
    9680:	e0211001 	eor	r1, r1, r1
    9684:	e5801000 	str	r1, [r0]
    9688:	e59f0164 	ldr	r0, [pc, #356]	; 97f4 <WaitForCycles+0x1c>
    968c:	e3a01003 	mov	r1, #3
    9690:	e5801000 	str	r1, [r0]
    9694:	e59f015c 	ldr	r0, [pc, #348]	; 97f8 <WaitForCycles+0x20>
    9698:	e0211001 	eor	r1, r1, r1
    969c:	e5801000 	str	r1, [r0]
    96a0:	e59f0144 	ldr	r0, [pc, #324]	; 97ec <WaitForCycles+0x14>
    96a4:	e0211001 	eor	r1, r1, r1
    96a8:	e5801000 	str	r1, [r0]
    96ac:	e59f0148 	ldr	r0, [pc, #328]	; 97fc <WaitForCycles+0x24>
    96b0:	e3a010c6 	mov	r1, #198	; 0xc6
    96b4:	e5801000 	str	r1, [r0]
    96b8:	e59f0140 	ldr	r0, [pc, #320]	; 9800 <WaitForCycles+0x28>
    96bc:	e59f1140 	ldr	r1, [pc, #320]	; 9804 <WaitForCycles+0x2c>
    96c0:	e5801000 	str	r1, [r0]
    96c4:	e3a0000e 	mov	r0, #14
    96c8:	e3a01002 	mov	r1, #2
    96cc:	eb000053 	bl	9820 <SetGpioFunction>
    96d0:	e3a0000f 	mov	r0, #15
    96d4:	e3a01002 	mov	r1, #2
    96d8:	eb000050 	bl	9820 <SetGpioFunction>
    96dc:	e59f0124 	ldr	r0, [pc, #292]	; 9808 <WaitForCycles+0x30>
    96e0:	e0211001 	eor	r1, r1, r1
    96e4:	e5801000 	str	r1, [r0]
    96e8:	e3a00096 	mov	r0, #150	; 0x96
    96ec:	eb000039 	bl	97d8 <WaitForCycles>
    96f0:	e59f0114 	ldr	r0, [pc, #276]	; 980c <WaitForCycles+0x34>
    96f4:	e3a01903 	mov	r1, #49152	; 0xc000
    96f8:	e5801000 	str	r1, [r0]
    96fc:	e3a00096 	mov	r0, #150	; 0x96
    9700:	eb000034 	bl	97d8 <WaitForCycles>
    9704:	e59f0100 	ldr	r0, [pc, #256]	; 980c <WaitForCycles+0x34>
    9708:	e0211001 	eor	r1, r1, r1
    970c:	e5801000 	str	r1, [r0]
    9710:	e59f00d8 	ldr	r0, [pc, #216]	; 97f0 <WaitForCycles+0x18>
    9714:	e3a01003 	mov	r1, #3
    9718:	e5801000 	str	r1, [r0]
    971c:	e49df004 	pop	{pc}		; (ldr pc, [sp], #4)

00009720 <PutCharUART>:
    9720:	e59f20e8 	ldr	r2, [pc, #232]	; 9810 <WaitForCycles+0x38>

00009724 <putWaitLoop$>:
    9724:	e5921000 	ldr	r1, [r2]
    9728:	e3110020 	tst	r1, #32
    972c:	0afffffc 	beq	9724 <putWaitLoop$>
    9730:	e59f20dc 	ldr	r2, [pc, #220]	; 9814 <WaitForCycles+0x3c>
    9734:	e5820000 	str	r0, [r2]
    9738:	e1a0f00e 	mov	pc, lr

0000973c <GetCharUART>:
    973c:	e59f20cc 	ldr	r2, [pc, #204]	; 9810 <WaitForCycles+0x38>

00009740 <getWaitLoop$>:
    9740:	e5921000 	ldr	r1, [r2]
    9744:	e3110001 	tst	r1, #1
    9748:	0afffffc 	beq	9740 <getWaitLoop$>
    974c:	e59f20c0 	ldr	r2, [pc, #192]	; 9814 <WaitForCycles+0x3c>
    9750:	e5920000 	ldr	r0, [r2]
    9754:	e1a0f00e 	mov	pc, lr

00009758 <WriteStringUART>:
    9758:	e92d4070 	push	{r4, r5, r6, lr}
    975c:	e1a04000 	mov	r4, r0
    9760:	e1a05001 	mov	r5, r1
    9764:	e3a06000 	mov	r6, #0

00009768 <writeLoop$>:
    9768:	e3550000 	cmp	r5, #0
    976c:	da000004 	ble	9784 <writeLoopEnd$>
    9770:	e7d40006 	ldrb	r0, [r4, r6]
    9774:	ebffffe9 	bl	9720 <PutCharUART>
    9778:	e2866001 	add	r6, r6, #1
    977c:	e2455001 	sub	r5, r5, #1
    9780:	eafffff8 	b	9768 <writeLoop$>

00009784 <writeLoopEnd$>:
    9784:	e8bd8070 	pop	{r4, r5, r6, pc}

00009788 <ReadLineUART>:
    9788:	e92d4070 	push	{r4, r5, r6, lr}
    978c:	e1a04000 	mov	r4, r0
    9790:	e1a05001 	mov	r5, r1
    9794:	e3a06000 	mov	r6, #0

00009798 <readLoop$>:
    9798:	e1360005 	teq	r6, r5
    979c:	0a00000b 	beq	97d0 <readLoopEnd$>
    97a0:	ebffffe5 	bl	973c <GetCharUART>
    97a4:	ebffffdd 	bl	9720 <PutCharUART>
    97a8:	e5c40000 	strb	r0, [r4]
    97ac:	e2866001 	add	r6, r6, #1
    97b0:	e2844001 	add	r4, r4, #1
    97b4:	e330000d 	teq	r0, #13
    97b8:	1afffff6 	bne	9798 <readLoop$>
    97bc:	e3a0000a 	mov	r0, #10
    97c0:	ebffffd6 	bl	9720 <PutCharUART>
    97c4:	e2444001 	sub	r4, r4, #1
    97c8:	e3a00000 	mov	r0, #0
    97cc:	e5c40000 	strb	r0, [r4]

000097d0 <readLoopEnd$>:
    97d0:	e2460001 	sub	r0, r6, #1
    97d4:	e8bd8070 	pop	{r4, r5, r6, pc}

000097d8 <WaitForCycles>:
    97d8:	e2400001 	sub	r0, r0, #1
    97dc:	e3500000 	cmp	r0, #0
    97e0:	aafffffc 	bge	97d8 <WaitForCycles>
    97e4:	e1a0f00e 	mov	pc, lr
    97e8:	3f215004 	.word	0x3f215004
    97ec:	3f215044 	.word	0x3f215044
    97f0:	3f215060 	.word	0x3f215060
    97f4:	3f21504c 	.word	0x3f21504c
    97f8:	3f215050 	.word	0x3f215050
    97fc:	3f215048 	.word	0x3f215048
    9800:	3f215068 	.word	0x3f215068
    9804:	0000010e 	.word	0x0000010e
    9808:	3f200094 	.word	0x3f200094
    980c:	3f200098 	.word	0x3f200098
    9810:	3f215054 	.word	0x3f215054
    9814:	3f215040 	.word	0x3f215040

00009818 <GetGpioAddress>:
    9818:	e59f00cc 	ldr	r0, [pc, #204]	; 98ec <GetGpio+0x44>
    981c:	e1a0f00e 	mov	pc, lr

00009820 <SetGpioFunction>:
    9820:	e3500035 	cmp	r0, #53	; 0x35
    9824:	93510007 	cmpls	r1, #7
    9828:	81a0f00e 	movhi	pc, lr
    982c:	e52de004 	push	{lr}		; (str lr, [sp, #-4]!)
    9830:	e1a02000 	mov	r2, r0
    9834:	ebfffff7 	bl	9818 <GetGpioAddress>

00009838 <functionLoop$>:
    9838:	e3520009 	cmp	r2, #9
    983c:	8242200a 	subhi	r2, r2, #10
    9840:	82800004 	addhi	r0, r0, #4
    9844:	8afffffb 	bhi	9838 <functionLoop$>
    9848:	e0822082 	add	r2, r2, r2, lsl #1
    984c:	e1a01211 	lsl	r1, r1, r2
    9850:	e3a03007 	mov	r3, #7
    9854:	e1a03213 	lsl	r3, r3, r2
    9858:	e5902000 	ldr	r2, [r0]
    985c:	e1c22003 	bic	r2, r2, r3
    9860:	e1811002 	orr	r1, r1, r2
    9864:	e5801000 	str	r1, [r0]
    9868:	e49df004 	pop	{pc}		; (ldr pc, [sp], #4)

0000986c <SetGpio>:
    986c:	e3500035 	cmp	r0, #53	; 0x35
    9870:	81a0f00e 	movhi	pc, lr
    9874:	e52de004 	push	{lr}		; (str lr, [sp, #-4]!)
    9878:	e1a02000 	mov	r2, r0
    987c:	ebffffe5 	bl	9818 <GetGpioAddress>
    9880:	e1a032a2 	lsr	r3, r2, #5
    9884:	e1a03103 	lsl	r3, r3, #2
    9888:	e0800003 	add	r0, r0, r3
    988c:	e202201f 	and	r2, r2, #31
    9890:	e3a03001 	mov	r3, #1
    9894:	e1a03213 	lsl	r3, r3, r2
    9898:	e3310000 	teq	r1, #0
    989c:	05803028 	streq	r3, [r0, #40]	; 0x28
    98a0:	1580301c 	strne	r3, [r0, #28]
    98a4:	e49df004 	pop	{pc}		; (ldr pc, [sp], #4)

000098a8 <GetGpio>:
    98a8:	e3500035 	cmp	r0, #53	; 0x35
    98ac:	81a0f00e 	movhi	pc, lr
    98b0:	e92d4010 	push	{r4, lr}
    98b4:	e1a04000 	mov	r4, r0
    98b8:	ebffffd6 	bl	9818 <GetGpioAddress>
    98bc:	e1a032a4 	lsr	r3, r4, #5
    98c0:	e1a03103 	lsl	r3, r3, #2
    98c4:	e0800003 	add	r0, r0, r3
    98c8:	e204401f 	and	r4, r4, #31
    98cc:	e3a03001 	mov	r3, #1
    98d0:	e1a03413 	lsl	r3, r3, r4
    98d4:	e5904034 	ldr	r4, [r0, #52]	; 0x34
    98d8:	e0044003 	and	r4, r4, r3
    98dc:	e3340000 	teq	r4, #0
    98e0:	03a00000 	moveq	r0, #0
    98e4:	13a00001 	movne	r0, #1
    98e8:	e8bd8010 	pop	{r4, pc}
    98ec:	3f200000 	.word	0x3f200000
