
build/output.elf:     file format elf32-littlearm


Disassembly of section .init:

00008000 <_start>:
    8000:	ea000022 	b	8090 <main>

Disassembly of section .text:

00008004 <EnableJTAG>:
    8004:	e52de004 	push	{lr}		; (str lr, [sp, #-4]!)
    8008:	e59f0064 	ldr	r0, [pc, #100]	; 8074 <dowaitloop+0xc>
    800c:	e0211001 	eor	r1, r1, r1
    8010:	e5801000 	str	r1, [r0]
    8014:	eb000012 	bl	8064 <dowait>
    8018:	e59f0058 	ldr	r0, [pc, #88]	; 8078 <dowaitloop+0x10>
    801c:	e59f1058 	ldr	r1, [pc, #88]	; 807c <dowaitloop+0x14>
    8020:	e5801000 	str	r1, [r0]
    8024:	eb00000e 	bl	8064 <dowait>
    8028:	e0211001 	eor	r1, r1, r1
    802c:	e5801000 	str	r1, [r0]
    8030:	e59f0048 	ldr	r0, [pc, #72]	; 8080 <dowaitloop+0x18>
    8034:	e5901000 	ldr	r1, [r0]
    8038:	e3c11a07 	bic	r1, r1, #28672	; 0x7000
    803c:	e3811a02 	orr	r1, r1, #8192	; 0x2000
    8040:	e5801000 	str	r1, [r0]
    8044:	e59f0038 	ldr	r0, [pc, #56]	; 8084 <dowaitloop+0x1c>
    8048:	e5901000 	ldr	r1, [r0]
    804c:	e59f2034 	ldr	r2, [pc, #52]	; 8088 <dowaitloop+0x20>
    8050:	e1c11002 	bic	r1, r1, r2
    8054:	e59f2030 	ldr	r2, [pc, #48]	; 808c <dowaitloop+0x24>
    8058:	e1811002 	orr	r1, r1, r2
    805c:	e5801000 	str	r1, [r0]
    8060:	e49df004 	pop	{pc}		; (ldr pc, [sp], #4)

00008064 <dowait>:
    8064:	e3a02f4b 	mov	r2, #300	; 0x12c

00008068 <dowaitloop>:
    8068:	e2522001 	subs	r2, r2, #1
    806c:	1afffffd 	bne	8068 <dowaitloop>
    8070:	e12fff1e 	bx	lr
    8074:	3f200094 	.word	0x3f200094
    8078:	3f200098 	.word	0x3f200098
    807c:	0bc00010 	.word	0x0bc00010
    8080:	3f200000 	.word	0x3f200000
    8084:	3f200008 	.word	0x3f200008
    8088:	00e3ffc0 	.word	0x00e3ffc0
    808c:	0061b6c0 	.word	0x0061b6c0

00008090 <main>:
    8090:	e3a0d902 	mov	sp, #32768	; 0x8000
    8094:	ebffffda 	bl	8004 <EnableJTAG>
    8098:	e59f004c 	ldr	r0, [pc, #76]	; 80ec <delay+0xc>
    809c:	e5901000 	ldr	r1, [r0]
    80a0:	e3a02007 	mov	r2, #7
    80a4:	e1c11a82 	bic	r1, r1, r2, lsl #21
    80a8:	e3a02001 	mov	r2, #1
    80ac:	e1811a82 	orr	r1, r1, r2, lsl #21
    80b0:	e5801000 	str	r1, [r0]
    80b4:	e59f4034 	ldr	r4, [pc, #52]	; 80f0 <delay+0x10>
    80b8:	e59f5034 	ldr	r5, [pc, #52]	; 80f4 <delay+0x14>
    80bc:	e3a06902 	mov	r6, #32768	; 0x8000

000080c0 <blinkLoop>:
    80c0:	e5846000 	str	r6, [r4]
    80c4:	e3a00707 	mov	r0, #1835008	; 0x1c0000
    80c8:	eb000004 	bl	80e0 <delay>
    80cc:	e5856000 	str	r6, [r5]
    80d0:	e3a00707 	mov	r0, #1835008	; 0x1c0000
    80d4:	eb000001 	bl	80e0 <delay>
    80d8:	eafffff8 	b	80c0 <blinkLoop>

000080dc <haltLoop$>:
    80dc:	eafffffe 	b	80dc <haltLoop$>

000080e0 <delay>:
    80e0:	e2500001 	subs	r0, r0, #1
    80e4:	1afffffd 	bne	80e0 <delay>
    80e8:	e12fff1e 	bx	lr
    80ec:	3f200010 	.word	0x3f200010
    80f0:	3f200020 	.word	0x3f200020
    80f4:	3f20002c 	.word	0x3f20002c
